target datalayout = "e-m:e-p270:32:32-p271:32:32-p272:64:64-i64:64-i128:128-f80:128-n8:16:32:64-S128"
target triple = "x86_64-pc-linux-gnu"

%struct._generic_N_Vector = type { ptr, ptr, ptr }
%struct._N_VectorContent_Serial = type { i64, i32, ptr }
%struct._generic_SUNLinearSolver = type { ptr, ptr, ptr }

@stderr = external global ptr, align 8
@.str.34 = private unnamed_addr constant [28 x i8] c"CVodeGetNonlinearSystemData\00", align 1
@.str.35 = private unnamed_addr constant [55 x i8] c"\0ASUNDIALS_ERROR: %s() failed - returned NULL pointer\0A\0A\00", align 1
@.str.36 = private unnamed_addr constant [46 x i8] c"\0ASUNDIALS_ERROR: %s() failed with flag = %d\0A\0A\00", align 1
@.str.37 = private unnamed_addr constant [53 x i8] c"\0AMEMORY_ERROR: %s() failed - returned NULL pointer\0A\0A\00", align 1

; Function Attrs: nounwind uwtable
define internal i32 @check_retval(ptr noundef %0, ptr noundef %1, i32 noundef %2) #0 {
  %4 = alloca i32, align 4
  %5 = alloca ptr, align 8
  %6 = alloca ptr, align 8
  %7 = alloca i32, align 4
  %8 = alloca ptr, align 8
  %9 = alloca i32, align 4
  store ptr %0, ptr %5, align 8, !tbaa !15
  store ptr %1, ptr %6, align 8, !tbaa !28
  store i32 %2, ptr %7, align 4, !tbaa !16
  call void @llvm.lifetime.start.p0(i64 8, ptr %8) #5
  %10 = load i32, ptr %7, align 4, !tbaa !16
  %11 = icmp eq i32 %10, 0
  br i1 %11, label %12, label %19

12:                                               ; preds = %3
  %13 = load ptr, ptr %5, align 8, !tbaa !15
  %14 = icmp eq ptr %13, null
  br i1 %14, label %15, label %19

15:                                               ; preds = %12
  %16 = load ptr, ptr @stderr, align 8, !tbaa !26
  %17 = load ptr, ptr %6, align 8, !tbaa !28
  %18 = call i32 (ptr, ptr, ...) @fprintf(ptr noundef %16, ptr noundef @.str.35, ptr noundef %17) #5
  store i32 1, ptr %4, align 4
  store i32 1, ptr %9, align 4
  br label %47

19:                                               ; preds = %12, %3
  %20 = load i32, ptr %7, align 4, !tbaa !16
  %21 = icmp eq i32 %20, 1
  br i1 %21, label %22, label %34

22:                                               ; preds = %19
  %23 = load ptr, ptr %5, align 8, !tbaa !15
  store ptr %23, ptr %8, align 8, !tbaa !30
  %24 = load ptr, ptr %8, align 8, !tbaa !30
  %25 = load i32, ptr %24, align 4, !tbaa !16
  %26 = icmp slt i32 %25, 0
  br i1 %26, label %27, label %33

27:                                               ; preds = %22
  %28 = load ptr, ptr @stderr, align 8, !tbaa !26
  %29 = load ptr, ptr %6, align 8, !tbaa !28
  %30 = load ptr, ptr %8, align 8, !tbaa !30
  %31 = load i32, ptr %30, align 4, !tbaa !16
  %32 = call i32 (ptr, ptr, ...) @fprintf(ptr noundef %28, ptr noundef @.str.36, ptr noundef %29, i32 noundef %31) #5
  store i32 1, ptr %4, align 4
  store i32 1, ptr %9, align 4
  br label %47

33:                                               ; preds = %22
  br label %45

34:                                               ; preds = %19
  %35 = load i32, ptr %7, align 4, !tbaa !16
  %36 = icmp eq i32 %35, 2
  br i1 %36, label %37, label %44

37:                                               ; preds = %34
  %38 = load ptr, ptr %5, align 8, !tbaa !15
  %39 = icmp eq ptr %38, null
  br i1 %39, label %40, label %44

40:                                               ; preds = %37
  %41 = load ptr, ptr @stderr, align 8, !tbaa !26
  %42 = load ptr, ptr %6, align 8, !tbaa !28
  %43 = call i32 (ptr, ptr, ...) @fprintf(ptr noundef %41, ptr noundef @.str.37, ptr noundef %42) #5
  store i32 1, ptr %4, align 4
  store i32 1, ptr %9, align 4
  br label %47

44:                                               ; preds = %37, %34
  br label %45

45:                                               ; preds = %44, %33
  br label %46

46:                                               ; preds = %45
  store i32 0, ptr %4, align 4
  store i32 1, ptr %9, align 4
  br label %47

47:                                               ; preds = %46, %40, %27, %15
  call void @llvm.lifetime.end.p0(i64 8, ptr %8) #5
  %48 = load i32, ptr %4, align 4
  ret i32 %48
}

; Function Attrs: nounwind uwtable
define internal i32 @MatrixEmbeddedLSSolve(ptr noundef %0, ptr noundef %1, ptr noundef %2, ptr noundef %3, double noundef %4) #0 {
  %6 = alloca i32, align 4
  %7 = alloca ptr, align 8
  %8 = alloca ptr, align 8
  %9 = alloca ptr, align 8
  %10 = alloca ptr, align 8
  %11 = alloca double, align 8
  %12 = alloca i32, align 4
  %13 = alloca ptr, align 8
  %14 = alloca ptr, align 8
  %15 = alloca ptr, align 8
  %16 = alloca ptr, align 8
  %17 = alloca double, align 8
  %18 = alloca double, align 8
  %19 = alloca double, align 8
  %20 = alloca ptr, align 8
  %21 = alloca ptr, align 8
  %22 = alloca double, align 8
  %23 = alloca i32, align 4
  store ptr %0, ptr %7, align 8, !tbaa !13
  store ptr %1, ptr %8, align 8, !tbaa !41
  store ptr %2, ptr %9, align 8, !tbaa !10
  store ptr %3, ptr %10, align 8, !tbaa !10
  store double %4, ptr %11, align 8, !tbaa !4
  call void @llvm.lifetime.start.p0(i64 4, ptr %12) #5
  call void @llvm.lifetime.start.p0(i64 8, ptr %13) #5
  call void @llvm.lifetime.start.p0(i64 8, ptr %14) #5
  call void @llvm.lifetime.start.p0(i64 8, ptr %15) #5
  call void @llvm.lifetime.start.p0(i64 8, ptr %16) #5
  call void @llvm.lifetime.start.p0(i64 8, ptr %17) #5
  call void @llvm.lifetime.start.p0(i64 8, ptr %18) #5
  call void @llvm.lifetime.start.p0(i64 8, ptr %19) #5
  call void @llvm.lifetime.start.p0(i64 8, ptr %20) #5
  call void @llvm.lifetime.start.p0(i64 8, ptr %21) #5
  call void @llvm.lifetime.start.p0(i64 8, ptr %22) #5
  %24 = load ptr, ptr %7, align 8, !tbaa !13
  %25 = getelementptr inbounds nuw %struct._generic_SUNLinearSolver, ptr %24, i32 0, i32 0
  %26 = load ptr, ptr %25, align 8, !tbaa !40
  %27 = call i32 @CVodeGetNonlinearSystemData(ptr noundef %26, ptr noundef %17, ptr noundef %14, ptr noundef %13, ptr noundef %15, ptr noundef %18, ptr noundef %19, ptr noundef %16, ptr noundef %20)
  store i32 %27, ptr %12, align 4, !tbaa !16
  %28 = call i32 @check_retval(ptr noundef %12, ptr noundef @.str.34, i32 noundef 1)
  %29 = icmp ne i32 %28, 0
  br i1 %29, label %30, label %31

30:                                               ; preds = %5
  store i32 -1, ptr %6, align 4
  store i32 1, ptr %23, align 4
  br label %54

31:                                               ; preds = %5
  %32 = load ptr, ptr %20, align 8, !tbaa !15
  store ptr %32, ptr %21, align 8, !tbaa !32
  %33 = load ptr, ptr %21, align 8, !tbaa !32
  %34 = getelementptr inbounds double, ptr %33, i64 0
  %35 = load double, ptr %34, align 8, !tbaa !4
  store double %35, ptr %22, align 8, !tbaa !4
  %36 = load ptr, ptr %10, align 8, !tbaa !10
  %37 = getelementptr inbounds nuw %struct._generic_N_Vector, ptr %36, i32 0, i32 0
  %38 = load ptr, ptr %37, align 8, !tbaa !20
  %39 = getelementptr inbounds nuw %struct._N_VectorContent_Serial, ptr %38, i32 0, i32 2
  %40 = load ptr, ptr %39, align 8, !tbaa !23
  %41 = getelementptr inbounds double, ptr %40, i64 0
  %42 = load double, ptr %41, align 8, !tbaa !4
  %43 = load double, ptr %18, align 8, !tbaa !4
  %44 = load double, ptr %22, align 8, !tbaa !4
  %45 = fneg double %43
  %46 = call double @llvm.fmuladd.f64(double %45, double %44, double 1.000000e+00)
  %47 = fdiv double %42, %46
  %48 = load ptr, ptr %9, align 8, !tbaa !10
  %49 = getelementptr inbounds nuw %struct._generic_N_Vector, ptr %48, i32 0, i32 0
  %50 = load ptr, ptr %49, align 8, !tbaa !20
  %51 = getelementptr inbounds nuw %struct._N_VectorContent_Serial, ptr %50, i32 0, i32 2
  %52 = load ptr, ptr %51, align 8, !tbaa !23
  %53 = getelementptr inbounds double, ptr %52, i64 0
  store double %47, ptr %53, align 8, !tbaa !4
  store i32 0, ptr %6, align 4
  store i32 1, ptr %23, align 4
  br label %54

54:                                               ; preds = %31, %30
  call void @llvm.lifetime.end.p0(i64 8, ptr %22) #5
  call void @llvm.lifetime.end.p0(i64 8, ptr %21) #5
  call void @llvm.lifetime.end.p0(i64 8, ptr %20) #5
  call void @llvm.lifetime.end.p0(i64 8, ptr %19) #5
  call void @llvm.lifetime.end.p0(i64 8, ptr %18) #5
  call void @llvm.lifetime.end.p0(i64 8, ptr %17) #5
  call void @llvm.lifetime.end.p0(i64 8, ptr %16) #5
  call void @llvm.lifetime.end.p0(i64 8, ptr %15) #5
  call void @llvm.lifetime.end.p0(i64 8, ptr %14) #5
  call void @llvm.lifetime.end.p0(i64 8, ptr %13) #5
  call void @llvm.lifetime.end.p0(i64 4, ptr %12) #5
  %55 = load i32, ptr %6, align 4
  ret i32 %55
}